(dp0
S'ncilia_y'
p1
I1
sS'psi'
p2
F0.9599310885968813
sS'beat_pattern'
p3
S'nodal'
p4
sS'T'
p5
I1
sS'theta'
p6
F0.5235987755982988
sS'npoints'
p7
I10
sS'ncilia_x'
p8
I1
sS'dt'
p9
F0.015625
sS'nsteps'
p10
I64
sS'L'
p11
F1.0
s.